; Function Attrs: nounwind sspstrong uwtable
define internal void @mirror_co_discard(ptr noundef initializes((74, 75)) %opaque) #0 {
entry:
  %0 = load ptr, ptr %opaque, align 8
  %in_flight = getelementptr inbounds nuw i8, ptr %0, i64 704
  %1 = load i32, ptr %in_flight, align 8
  %inc = add i32 %1, 1
  store i32 %inc, ptr %in_flight, align 8
  %bytes = getelementptr inbounds nuw i8, ptr %opaque, i64 56
  %2 = load i64, ptr %bytes, align 8
  %3 = load ptr, ptr %opaque, align 8
  %bytes_in_flight = getelementptr inbounds nuw i8, ptr %3, i64 712
  %4 = load i64, ptr %bytes_in_flight, align 8
  %add = add i64 %4, %2
  store i64 %add, ptr %bytes_in_flight, align 8
  %5 = load i64, ptr %bytes, align 8
  %bytes_handled = getelementptr inbounds nuw i8, ptr %opaque, i64 64
  %6 = load ptr, ptr %bytes_handled, align 8
  store i64 %5, ptr %6, align 8
  %is_in_flight = getelementptr inbounds nuw i8, ptr %opaque, i64 74
  store i8 1, ptr %is_in_flight, align 2
  %7 = load ptr, ptr %opaque, align 8
  %target = getelementptr inbounds nuw i8, ptr %7, i64 520
  %8 = load ptr, ptr %target, align 8
  %offset = getelementptr inbounds nuw i8, ptr %opaque, i64 48
  %9 = load i64, ptr %offset, align 8
  %call = tail call i32 @blk_co_pdiscard(ptr noundef %8, i64 noundef %9, i64 noundef %5) #12
  %10 = load ptr, ptr %opaque, align 8
  %cmp.i = icmp slt i32 %call, 0
  br i1 %cmp.i, label %if.then.i, label %mirror_write_complete.exit

if.then.i:                                        ; preds = %entry
  %dirty_bitmap.i = getelementptr inbounds nuw i8, ptr %10, i64 640
  %11 = load ptr, ptr %dirty_bitmap.i, align 8
  %12 = load i64, ptr %offset, align 8
  %13 = load i64, ptr %bytes, align 8
  tail call void @bdrv_set_dirty_bitmap(ptr noundef %11, i64 noundef %12, i64 noundef %13) #12
  %sub.i = sub i32 0, %call
  %actively_synced.i.i = getelementptr inbounds nuw i8, ptr %10, i64 600
  store atomic i8 0, ptr %actively_synced.i.i monotonic, align 8
  %on_target_error.i.i = getelementptr inbounds nuw i8, ptr %10, i64 596
  %14 = load i32, ptr %on_target_error.i.i, align 4
  %call4.i.i = tail call i32 @block_job_error_action(ptr noundef nonnull %10, i32 noundef %14, i32 noundef 0, i32 noundef range(i32 1, -2147483647) %sub.i) #12
  %cmp2.i = icmp eq i32 %call4.i.i, 1
  br i1 %cmp2.i, label %land.lhs.true.i, label %mirror_write_complete.exit

land.lhs.true.i:                                  ; preds = %if.then.i
  %ret3.i = getelementptr inbounds nuw i8, ptr %10, i64 736
  %15 = load i32, ptr %ret3.i, align 8
  %cmp4.i = icmp sgt i32 %15, -1
  br i1 %cmp4.i, label %if.then5.i, label %mirror_write_complete.exit

if.then5.i:                                       ; preds = %land.lhs.true.i
  store i32 %call, ptr %ret3.i, align 8
  br label %mirror_write_complete.exit

mirror_write_complete.exit:                       ; preds = %entry, %if.then.i, %land.lhs.true.i, %if.then5.i
  tail call void @mirror_iteration_done(ptr noundef nonnull %opaque, i32 noundef %call)
  ret void
}